target datalayout = "e-m:e-p270:32:32-p271:32:32-p272:64:64-i64:64-i128:128-f80:128-n8:16:32:64-S128"
target triple = "x86_64-pc-linux-gnu"

%struct.llama_ubatch = type { i8, i32, i32, i32, ptr, ptr, ptr, ptr, ptr, ptr }
%struct.llama_sbatch = type { i64, i64, i8, %"class.std::vector", %"class.std::vector", %"class.std::vector.0", ptr, %"class.std::vector.5", %"class.std::vector.10", %"class.std::vector.5", %"class.std::vector.5", %"class.std::vector.15", %"class.std::vector.20" }
%"class.std::vector" = type { %"struct.std::_Vector_base" }
%"struct.std::_Vector_base" = type { %"struct.std::_Vector_base<unsigned long, std::allocator<unsigned long>>::_Vector_impl" }
%"struct.std::_Vector_base<unsigned long, std::allocator<unsigned long>>::_Vector_impl" = type { %"struct.std::_Vector_base<unsigned long, std::allocator<unsigned long>>::_Vector_impl_data" }
%"struct.std::_Vector_base<unsigned long, std::allocator<unsigned long>>::_Vector_impl_data" = type { ptr, ptr, ptr }
%"class.std::vector.0" = type { %"struct.std::_Vector_base.1" }
%"struct.std::_Vector_base.1" = type { %"struct.std::_Vector_base<llama_sbatch_seq, std::allocator<llama_sbatch_seq>>::_Vector_impl" }
%"struct.std::_Vector_base<llama_sbatch_seq, std::allocator<llama_sbatch_seq>>::_Vector_impl" = type { %"struct.std::_Vector_base<llama_sbatch_seq, std::allocator<llama_sbatch_seq>>::_Vector_impl_data" }
%"struct.std::_Vector_base<llama_sbatch_seq, std::allocator<llama_sbatch_seq>>::_Vector_impl_data" = type { ptr, ptr, ptr }
%"class.std::vector.10" = type { %"struct.std::_Vector_base.11" }
%"struct.std::_Vector_base.11" = type { %"struct.std::_Vector_base<float, std::allocator<float>>::_Vector_impl" }
%"struct.std::_Vector_base<float, std::allocator<float>>::_Vector_impl" = type { %"struct.std::_Vector_base<float, std::allocator<float>>::_Vector_impl_data" }
%"struct.std::_Vector_base<float, std::allocator<float>>::_Vector_impl_data" = type { ptr, ptr, ptr }
%"class.std::vector.5" = type { %"struct.std::_Vector_base.6" }
%"struct.std::_Vector_base.6" = type { %"struct.std::_Vector_base<int, std::allocator<int>>::_Vector_impl" }
%"struct.std::_Vector_base<int, std::allocator<int>>::_Vector_impl" = type { %"struct.std::_Vector_base<int, std::allocator<int>>::_Vector_impl_data" }
%"struct.std::_Vector_base<int, std::allocator<int>>::_Vector_impl_data" = type { ptr, ptr, ptr }
%"class.std::vector.15" = type { %"struct.std::_Vector_base.16" }
%"struct.std::_Vector_base.16" = type { %"struct.std::_Vector_base<int *, std::allocator<int *>>::_Vector_impl" }
%"struct.std::_Vector_base<int *, std::allocator<int *>>::_Vector_impl" = type { %"struct.std::_Vector_base<int *, std::allocator<int *>>::_Vector_impl_data" }
%"struct.std::_Vector_base<int *, std::allocator<int *>>::_Vector_impl_data" = type { ptr, ptr, ptr }
%"class.std::vector.20" = type { %"struct.std::_Vector_base.21" }
%"struct.std::_Vector_base.21" = type { %"struct.std::_Vector_base<signed char, std::allocator<signed char>>::_Vector_impl" }
%"struct.std::_Vector_base<signed char, std::allocator<signed char>>::_Vector_impl" = type { %"struct.std::_Vector_base<signed char, std::allocator<signed char>>::_Vector_impl_data" }
%"struct.std::_Vector_base<signed char, std::allocator<signed char>>::_Vector_impl_data" = type { ptr, ptr, ptr }
%struct.llama_sbatch_seq = type { i32, ptr, i64, i64 }
%struct.llama_batch = type { i32, ptr, ptr, ptr, ptr, ptr, ptr }
%"class.__gnu_cxx::__normal_iterator.27" = type { ptr }

@.str = private unnamed_addr constant [117 x i8] c"generated/home/dtcxzyw/WorkSpace/Projects/compilers/llvm-opt-benchmark/bench/llama.cpp/llama.cpp/src/llama-batch.cpp\00", align 1
@.str.1 = private unnamed_addr constant [23 x i8] c"GGML_ASSERT(%s) failed\00", align 1
@.str.7 = private unnamed_addr constant [35 x i8] c"seq.size() == 1 && s.n_seq_id == 0\00", align 1

; Function Attrs: mustprogress nounwind uwtable
define linkonce_odr noundef nonnull align 8 dereferenceable(8) ptr @_ZNK9__gnu_cxx17__normal_iteratorIPK16llama_sbatch_seqSt6vectorIS1_SaIS1_EEE4baseEv(ptr noundef nonnull align 8 dereferenceable(8) %0) #2 comdat align 2 {
  %2 = alloca ptr, align 8
  store ptr %0, ptr %2, align 8, !tbaa !216
  %3 = load ptr, ptr %2, align 8
  %4 = getelementptr inbounds nuw %"class.__gnu_cxx::__normal_iterator.27", ptr %3, i32 0, i32 0
  ret ptr %4
}

; Function Attrs: mustprogress nounwind uwtable
define linkonce_odr void @_ZN9__gnu_cxx17__normal_iteratorIPK16llama_sbatch_seqSt6vectorIS1_SaIS1_EEEC2ERKS3_(ptr noundef nonnull align 8 dereferenceable(8) %0, ptr noundef nonnull align 8 dereferenceable(8) %1) unnamed_addr #2 comdat align 2 {
  %3 = alloca ptr, align 8
  %4 = alloca ptr, align 8
  store ptr %0, ptr %3, align 8, !tbaa !216
  store ptr %1, ptr %4, align 8, !tbaa !218
  %5 = load ptr, ptr %3, align 8
  %6 = getelementptr inbounds nuw %"class.__gnu_cxx::__normal_iterator.27", ptr %5, i32 0, i32 0
  %7 = load ptr, ptr %4, align 8, !tbaa !218
  %8 = load ptr, ptr %7, align 8, !tbaa !82
  store ptr %8, ptr %6, align 8, !tbaa !220
  ret void
}

; Function Attrs: inlinehint mustprogress nounwind uwtable
define linkonce_odr noundef zeroext i1 @_ZN9__gnu_cxxeqIPK16llama_sbatch_seqSt6vectorIS1_SaIS1_EEEEbRKNS_17__normal_iteratorIT_T0_EESC_(ptr noundef nonnull align 8 dereferenceable(8) %0, ptr noundef nonnull align 8 dereferenceable(8) %1) #11 comdat {
  %3 = alloca ptr, align 8
  %4 = alloca ptr, align 8
  store ptr %0, ptr %3, align 8, !tbaa !216
  store ptr %1, ptr %4, align 8, !tbaa !216
  %5 = load ptr, ptr %3, align 8, !tbaa !216
  %6 = call noundef nonnull align 8 dereferenceable(8) ptr @_ZNK9__gnu_cxx17__normal_iteratorIPK16llama_sbatch_seqSt6vectorIS1_SaIS1_EEE4baseEv(ptr noundef nonnull align 8 dereferenceable(8) %5) #16
  %7 = load ptr, ptr %6, align 8, !tbaa !82
  %8 = load ptr, ptr %4, align 8, !tbaa !216
  %9 = call noundef nonnull align 8 dereferenceable(8) ptr @_ZNK9__gnu_cxx17__normal_iteratorIPK16llama_sbatch_seqSt6vectorIS1_SaIS1_EEE4baseEv(ptr noundef nonnull align 8 dereferenceable(8) %8) #16
  %10 = load ptr, ptr %9, align 8, !tbaa !82
  %11 = icmp eq ptr %7, %10
  ret i1 %11
}

; Function Attrs: mustprogress nounwind uwtable
define linkonce_odr ptr @_ZNKSt6vectorI16llama_sbatch_seqSaIS0_EE3endEv(ptr noundef nonnull align 8 dereferenceable(24) %0) #2 comdat align 2 {
  %2 = alloca %"class.__gnu_cxx::__normal_iterator.27", align 8
  %3 = alloca ptr, align 8
  store ptr %0, ptr %3, align 8, !tbaa !64
  %4 = load ptr, ptr %3, align 8
  %5 = getelementptr inbounds nuw %"struct.std::_Vector_base.1", ptr %4, i32 0, i32 0
  %6 = getelementptr inbounds nuw %"struct.std::_Vector_base<llama_sbatch_seq, std::allocator<llama_sbatch_seq>>::_Vector_impl_data", ptr %5, i32 0, i32 1
  call void @_ZN9__gnu_cxx17__normal_iteratorIPK16llama_sbatch_seqSt6vectorIS1_SaIS1_EEEC2ERKS3_(ptr noundef nonnull align 8 dereferenceable(8) %2, ptr noundef nonnull align 8 dereferenceable(8) %6) #16
  %7 = getelementptr inbounds nuw %"class.__gnu_cxx::__normal_iterator.27", ptr %2, i32 0, i32 0
  %8 = load ptr, ptr %7, align 8
  ret ptr %8
}

; Function Attrs: mustprogress nounwind uwtable
define linkonce_odr ptr @_ZNKSt6vectorI16llama_sbatch_seqSaIS0_EE5beginEv(ptr noundef nonnull align 8 dereferenceable(24) %0) #2 comdat align 2 {
  %2 = alloca %"class.__gnu_cxx::__normal_iterator.27", align 8
  %3 = alloca ptr, align 8
  store ptr %0, ptr %3, align 8, !tbaa !64
  %4 = load ptr, ptr %3, align 8
  %5 = getelementptr inbounds nuw %"struct.std::_Vector_base.1", ptr %4, i32 0, i32 0
  %6 = getelementptr inbounds nuw %"struct.std::_Vector_base<llama_sbatch_seq, std::allocator<llama_sbatch_seq>>::_Vector_impl_data", ptr %5, i32 0, i32 0
  call void @_ZN9__gnu_cxx17__normal_iteratorIPK16llama_sbatch_seqSt6vectorIS1_SaIS1_EEEC2ERKS3_(ptr noundef nonnull align 8 dereferenceable(8) %2, ptr noundef nonnull align 8 dereferenceable(8) %6) #16
  %7 = getelementptr inbounds nuw %"class.__gnu_cxx::__normal_iterator.27", ptr %2, i32 0, i32 0
  %8 = load ptr, ptr %7, align 8
  ret ptr %8
}

; Function Attrs: mustprogress nounwind uwtable
define linkonce_odr noundef i64 @_ZNKSt6vectorI16llama_sbatch_seqSaIS0_EE4sizeEv(ptr noundef nonnull align 8 dereferenceable(24) %0) #2 comdat align 2 {
  %2 = alloca ptr, align 8
  store ptr %0, ptr %2, align 8, !tbaa !64
  %3 = load ptr, ptr %2, align 8
  %4 = getelementptr inbounds nuw %"struct.std::_Vector_base.1", ptr %3, i32 0, i32 0
  %5 = getelementptr inbounds nuw %"struct.std::_Vector_base<llama_sbatch_seq, std::allocator<llama_sbatch_seq>>::_Vector_impl_data", ptr %4, i32 0, i32 1
  %6 = load ptr, ptr %5, align 8, !tbaa !66
  %7 = getelementptr inbounds nuw %"struct.std::_Vector_base.1", ptr %3, i32 0, i32 0
  %8 = getelementptr inbounds nuw %"struct.std::_Vector_base<llama_sbatch_seq, std::allocator<llama_sbatch_seq>>::_Vector_impl_data", ptr %7, i32 0, i32 0
  %9 = load ptr, ptr %8, align 8, !tbaa !67
  %10 = ptrtoint ptr %6 to i64
  %11 = ptrtoint ptr %9 to i64
  %12 = sub i64 %10, %11
  %13 = sdiv exact i64 %12, 32
  ret i64 %13
}

; Function Attrs: mustprogress nounwind uwtable
define linkonce_odr noundef nonnull align 8 dereferenceable(32) ptr @_ZNSt6vectorI16llama_sbatch_seqSaIS0_EEixEm(ptr noundef nonnull align 8 dereferenceable(24) %0, i64 noundef %1) #2 comdat align 2 {
  %3 = alloca ptr, align 8
  %4 = alloca i64, align 8
  store ptr %0, ptr %3, align 8, !tbaa !64
  store i64 %1, ptr %4, align 8, !tbaa !8
  %5 = load ptr, ptr %3, align 8
  %6 = getelementptr inbounds nuw %"struct.std::_Vector_base.1", ptr %5, i32 0, i32 0
  %7 = getelementptr inbounds nuw %"struct.std::_Vector_base<llama_sbatch_seq, std::allocator<llama_sbatch_seq>>::_Vector_impl_data", ptr %6, i32 0, i32 0
  %8 = load ptr, ptr %7, align 8, !tbaa !67
  %9 = load i64, ptr %4, align 8, !tbaa !8
  %10 = getelementptr inbounds nuw %struct.llama_sbatch_seq, ptr %8, i64 %9
  ret ptr %10
}

; Function Attrs: mustprogress nounwind uwtable
define linkonce_odr noundef zeroext i1 @_ZNKSt6vectorI16llama_sbatch_seqSaIS0_EE5emptyEv(ptr noundef nonnull align 8 dereferenceable(24) %0) #2 comdat align 2 {
  %2 = alloca ptr, align 8
  %3 = alloca %"class.__gnu_cxx::__normal_iterator.27", align 8
  %4 = alloca %"class.__gnu_cxx::__normal_iterator.27", align 8
  store ptr %0, ptr %2, align 8, !tbaa !64
  %5 = load ptr, ptr %2, align 8
  call void @llvm.lifetime.start.p0(i64 8, ptr %3) #16
  %6 = call ptr @_ZNKSt6vectorI16llama_sbatch_seqSaIS0_EE5beginEv(ptr noundef nonnull align 8 dereferenceable(24) %5) #16
  %7 = getelementptr inbounds nuw %"class.__gnu_cxx::__normal_iterator.27", ptr %3, i32 0, i32 0
  store ptr %6, ptr %7, align 8
  call void @llvm.lifetime.start.p0(i64 8, ptr %4) #16
  %8 = call ptr @_ZNKSt6vectorI16llama_sbatch_seqSaIS0_EE3endEv(ptr noundef nonnull align 8 dereferenceable(24) %5) #16
  %9 = getelementptr inbounds nuw %"class.__gnu_cxx::__normal_iterator.27", ptr %4, i32 0, i32 0
  store ptr %8, ptr %9, align 8
  %10 = call noundef zeroext i1 @_ZN9__gnu_cxxeqIPK16llama_sbatch_seqSt6vectorIS1_SaIS1_EEEEbRKNS_17__normal_iteratorIT_T0_EESC_(ptr noundef nonnull align 8 dereferenceable(8) %3, ptr noundef nonnull align 8 dereferenceable(8) %4) #16
  call void @llvm.lifetime.end.p0(i64 8, ptr %4) #16
  call void @llvm.lifetime.end.p0(i64 8, ptr %3) #16
  ret i1 %10
}

; Function Attrs: mustprogress uwtable
define void @_ZN12llama_sbatch12split_simpleEm(ptr dead_on_unwind noalias writable sret(%struct.llama_ubatch) align 8 %0, ptr noundef nonnull align 8 dereferenceable(248) %1, i64 noundef %2) #0 align 2 {
  %4 = alloca ptr, align 8
  %5 = alloca i64, align 8
  %6 = alloca ptr, align 8
  %7 = alloca i64, align 8
  store ptr %1, ptr %4, align 8, !tbaa !3
  store i64 %2, ptr %5, align 8, !tbaa !8
  %8 = load ptr, ptr %4, align 8
  %9 = getelementptr inbounds nuw %struct.llama_sbatch, ptr %8, i32 0, i32 0
  %10 = load i64, ptr %9, align 8, !tbaa !106
  %11 = load i64, ptr %5, align 8, !tbaa !8
  %12 = icmp ult i64 %10, %11
  br i1 %12, label %13, label %16

13:                                               ; preds = %3
  %14 = getelementptr inbounds nuw %struct.llama_sbatch, ptr %8, i32 0, i32 0
  %15 = load i64, ptr %14, align 8, !tbaa !106
  br label %18

16:                                               ; preds = %3
  %17 = load i64, ptr %5, align 8, !tbaa !8
  br label %18

18:                                               ; preds = %16, %13
  %19 = phi i64 [ %15, %13 ], [ %17, %16 ]
  store i64 %19, ptr %5, align 8, !tbaa !8
  %20 = load i64, ptr %5, align 8, !tbaa !8
  %21 = getelementptr inbounds nuw %struct.llama_sbatch, ptr %8, i32 0, i32 6
  %22 = load ptr, ptr %21, align 8, !tbaa !83
  %23 = getelementptr inbounds nuw %struct.llama_batch, ptr %22, i32 0, i32 2
  %24 = load ptr, ptr %23, align 8, !tbaa !90
  %25 = icmp ne ptr %24, null
  call void @_ZN12llama_sbatch14reserve_ubatchEmb(ptr dead_on_unwind writable sret(%struct.llama_ubatch) align 8 %0, ptr noundef nonnull align 8 dereferenceable(248) %8, i64 noundef %20, i1 noundef zeroext %25)
  %26 = getelementptr inbounds nuw %struct.llama_ubatch, ptr %0, i32 0, i32 0
  store i8 0, ptr %26, align 8, !tbaa !53
  %27 = getelementptr inbounds nuw %struct.llama_sbatch, ptr %8, i32 0, i32 5
  %28 = call noundef zeroext i1 @_ZNKSt6vectorI16llama_sbatch_seqSaIS0_EE5emptyEv(ptr noundef nonnull align 8 dereferenceable(24) %27) #16
  br i1 %28, label %57, label %29

29:                                               ; preds = %18
  call void @llvm.lifetime.start.p0(i64 8, ptr %6) #16
  %30 = getelementptr inbounds nuw %struct.llama_sbatch, ptr %8, i32 0, i32 5
  %31 = call noundef nonnull align 8 dereferenceable(32) ptr @_ZNSt6vectorI16llama_sbatch_seqSaIS0_EEixEm(ptr noundef nonnull align 8 dereferenceable(24) %30, i64 noundef 0) #16
  store ptr %31, ptr %6, align 8, !tbaa !82
  call void @llvm.lifetime.start.p0(i64 8, ptr %7) #16
  %32 = load ptr, ptr %6, align 8, !tbaa !82
  %33 = getelementptr inbounds nuw %struct.llama_sbatch_seq, ptr %32, i32 0, i32 3
  %34 = load i64, ptr %33, align 8, !tbaa !12
  %35 = load i64, ptr %5, align 8, !tbaa !8
  %36 = icmp ult i64 %34, %35
  br i1 %36, label %37, label %41

37:                                               ; preds = %29
  %38 = load ptr, ptr %6, align 8, !tbaa !82
  %39 = getelementptr inbounds nuw %struct.llama_sbatch_seq, ptr %38, i32 0, i32 3
  %40 = load i64, ptr %39, align 8, !tbaa !12
  br label %43

41:                                               ; preds = %29
  %42 = load i64, ptr %5, align 8, !tbaa !8
  br label %43

43:                                               ; preds = %41, %37
  %44 = phi i64 [ %40, %37 ], [ %42, %41 ]
  store i64 %44, ptr %7, align 8, !tbaa !8
  %45 = getelementptr inbounds nuw %struct.llama_sbatch, ptr %8, i32 0, i32 5
  %46 = call noundef i64 @_ZNKSt6vectorI16llama_sbatch_seqSaIS0_EE4sizeEv(ptr noundef nonnull align 8 dereferenceable(24) %45) #16
  %47 = icmp eq i64 %46, 1
  br i1 %47, label %48, label %53

48:                                               ; preds = %43
  %49 = load ptr, ptr %6, align 8, !tbaa !82
  %50 = getelementptr inbounds nuw %struct.llama_sbatch_seq, ptr %49, i32 0, i32 0
  %51 = load i32, ptr %50, align 8, !tbaa !84
  %52 = icmp eq i32 %51, 0
  br i1 %52, label %54, label %53

53:                                               ; preds = %48, %43
  call void (ptr, i32, ptr, ...) @ggml_abort(ptr noundef @.str, i32 noundef 147, ptr noundef @.str.1, ptr noundef @.str.7) #17
  unreachable

54:                                               ; preds = %48
  %55 = load ptr, ptr %6, align 8, !tbaa !82
  %56 = load i64, ptr %7, align 8, !tbaa !8
  call void @_ZN12llama_sbatch17add_seq_to_ubatchER12llama_ubatchR16llama_sbatch_seqm(ptr noundef nonnull align 8 dereferenceable(248) %8, ptr noundef nonnull align 8 dereferenceable(64) %0, ptr noundef nonnull align 8 dereferenceable(32) %55, i64 noundef %56)
  call void @llvm.lifetime.end.p0(i64 8, ptr %7) #16
  call void @llvm.lifetime.end.p0(i64 8, ptr %6) #16
  br label %57

57:                                               ; preds = %54, %18
  ret void
}