; Function Attrs: mustprogress uwtable
define void @_ZN12llama_sbatch12split_simpleEm(ptr dead_on_unwind noalias writable sret(%struct.llama_ubatch) align 8 captures(none) %0, ptr noundef nonnull align 8 dereferenceable(248) %1, i64 noundef %2) local_unnamed_addr #0 align 2 {
  %4 = load i64, ptr %1, align 8, !tbaa !98
  %. = tail call i64 @llvm.umin.i64(i64 %4, i64 %2)
  %5 = getelementptr inbounds nuw i8, ptr %1, i64 96
  %6 = load ptr, ptr %5, align 8, !tbaa !47
  %7 = getelementptr inbounds nuw i8, ptr %6, i64 16
  %8 = load ptr, ptr %7, align 8, !tbaa !80
  %9 = icmp ne ptr %8, null
  tail call void @_ZN12llama_sbatch14reserve_ubatchEmb(ptr dead_on_unwind writable sret(%struct.llama_ubatch) align 8 %0, ptr noundef nonnull align 8 dereferenceable(248) %1, i64 noundef %., i1 noundef zeroext %9)
  store i8 0, ptr %0, align 8, !tbaa !29
  %10 = getelementptr inbounds nuw i8, ptr %1, i64 72
  %11 = load ptr, ptr %10, align 8, !tbaa !99
  %12 = getelementptr inbounds nuw i8, ptr %1, i64 80
  %13 = load ptr, ptr %12, align 8, !tbaa !99
  %14 = icmp eq ptr %11, %13
  br i1 %14, label %27, label %15

15:                                               ; preds = %3
  %16 = getelementptr inbounds nuw i8, ptr %11, i64 24
  %17 = load i64, ptr %16, align 8, !tbaa !10
  %.. = tail call i64 @llvm.umin.i64(i64 %17, i64 %.)
  %18 = ptrtoint ptr %13 to i64
  %19 = ptrtoint ptr %11 to i64
  %20 = sub i64 %18, %19
  %21 = icmp eq i64 %20, 32
  br i1 %21, label %22, label %25

22:                                               ; preds = %15
  %23 = load i32, ptr %11, align 8, !tbaa !70
  %24 = icmp eq i32 %23, 0
  br i1 %24, label %26, label %25

25:                                               ; preds = %22, %15
  tail call void (ptr, i32, ptr, ...) @ggml_abort(ptr noundef nonnull @.str, i32 noundef 147, ptr noundef nonnull @.str.1, ptr noundef nonnull @.str.7) #17
  unreachable

26:                                               ; preds = %22
  tail call void @_ZN12llama_sbatch17add_seq_to_ubatchER12llama_ubatchR16llama_sbatch_seqm(ptr noundef nonnull align 8 dereferenceable(248) %1, ptr noundef nonnull align 8 dereferenceable(64) %0, ptr noundef nonnull align 8 dereferenceable(32) %11, i64 noundef %..)
  br label %27

27:                                               ; preds = %26, %3
  ret void
}